; Function Attrs: null_pointer_is_valid sspstrong uwtable
define internal noundef i32 @colorized_frame_set_cb(ptr noundef readonly captures(address_is_null) %0, ptr noundef %1, ptr noundef captures(none) %2) #1 {
  %4 = getelementptr inbounds nuw i8, ptr %0, i64 40
  %5 = load ptr, ptr %4, align 8
  %6 = load ptr, ptr %5, align 8
  %.not.i = icmp eq ptr %6, null
  br i1 %.not.i, label %14, label %7

7:                                                ; preds = %3
  %8 = tail call i32 @strcmp(ptr noundef nonnull dereferenceable(1) %6, ptr noundef %1) #29
  %.not34.i = icmp eq i32 %8, 0
  br i1 %.not34.i, label %prefs_set_string_value.exit, label %9

9:                                                ; preds = %7
  %10 = icmp eq ptr %0, null
  br i1 %10, label %prefs_set_string_value.exit.sink.split, label %11

11:                                               ; preds = %9
  %12 = getelementptr inbounds nuw i8, ptr %0, i64 32
  %13 = load i32, ptr %12, align 8
  br label %prefs_set_string_value.exit.sink.split

14:                                               ; preds = %3
  %.not33.i = icmp eq ptr %1, null
  br i1 %.not33.i, label %prefs_set_string_value.exit, label %prefs_set_string_value.exit.sink.split

prefs_set_string_value.exit.sink.split:           ; preds = %14, %9, %11
  %.sink = phi ptr [ %6, %11 ], [ %6, %9 ], [ null, %14 ]
  %.0.i.ph = phi i32 [ %13, %11 ], [ 0, %9 ], [ 0, %14 ]
  tail call void @g_free(ptr noundef %.sink)
  %15 = tail call noalias ptr @g_strdup(ptr noundef %1)
  %16 = load ptr, ptr %4, align 8
  store ptr %15, ptr %16, align 8
  br label %prefs_set_string_value.exit

prefs_set_string_value.exit:                      ; preds = %prefs_set_string_value.exit.sink.split, %7, %14
  %.0.i = phi i32 [ 0, %7 ], [ 0, %14 ], [ %.0.i.ph, %prefs_set_string_value.exit.sink.split ]
  %17 = load i32, ptr %2, align 4
  %18 = or i32 %17, %.0.i
  store i32 %18, ptr %2, align 4
  ret i32 0
}